target datalayout = "e-m:e-p270:32:32-p271:32:32-p272:64:64-i64:64-i128:128-f80:128-n8:16:32:64-S128"
target triple = "x86_64-pc-linux-gnu"

%struct._zend_ssa_range = type { i64, i64, i8, i8 }

; Function Attrs: nounwind uwtable
define hidden i64 @maxOR(i64 noundef %0, i64 noundef %1, i64 noundef %2, i64 noundef %3) #0 {
  %5 = alloca i64, align 8
  %6 = alloca i64, align 8
  %7 = alloca i64, align 8
  %8 = alloca i64, align 8
  %9 = alloca i64, align 8
  %10 = alloca i64, align 8
  store i64 %0, ptr %5, align 8
  store i64 %1, ptr %6, align 8
  store i64 %2, ptr %7, align 8
  store i64 %3, ptr %8, align 8
  store i64 -9223372036854775808, ptr %9, align 8
  br label %11

11:                                               ; preds = %46, %4
  %12 = load i64, ptr %9, align 8
  %13 = icmp ne i64 %12, 0
  br i1 %13, label %14, label %49

14:                                               ; preds = %11
  %15 = load i64, ptr %6, align 8
  %16 = load i64, ptr %8, align 8
  %17 = and i64 %15, %16
  %18 = load i64, ptr %9, align 8
  %19 = and i64 %17, %18
  %20 = icmp ne i64 %19, 0
  br i1 %20, label %21, label %46

21:                                               ; preds = %14
  %22 = load i64, ptr %6, align 8
  %23 = load i64, ptr %9, align 8
  %24 = sub i64 %22, %23
  %25 = load i64, ptr %9, align 8
  %26 = sub i64 %25, 1
  %27 = or i64 %24, %26
  store i64 %27, ptr %10, align 8
  %28 = load i64, ptr %10, align 8
  %29 = load i64, ptr %5, align 8
  %30 = icmp uge i64 %28, %29
  br i1 %30, label %31, label %33

31:                                               ; preds = %21
  %32 = load i64, ptr %10, align 8
  store i64 %32, ptr %6, align 8
  br label %49

33:                                               ; preds = %21
  %34 = load i64, ptr %8, align 8
  %35 = load i64, ptr %9, align 8
  %36 = sub i64 %34, %35
  %37 = load i64, ptr %9, align 8
  %38 = sub i64 %37, 1
  %39 = or i64 %36, %38
  store i64 %39, ptr %10, align 8
  %40 = load i64, ptr %10, align 8
  %41 = load i64, ptr %7, align 8
  %42 = icmp uge i64 %40, %41
  br i1 %42, label %43, label %45

43:                                               ; preds = %33
  %44 = load i64, ptr %10, align 8
  store i64 %44, ptr %8, align 8
  br label %49

45:                                               ; preds = %33
  br label %46

46:                                               ; preds = %45, %14
  %47 = load i64, ptr %9, align 8
  %48 = lshr i64 %47, 1
  store i64 %48, ptr %9, align 8
  br label %11

49:                                               ; preds = %43, %31, %11
  %50 = load i64, ptr %6, align 8
  %51 = load i64, ptr %8, align 8
  %52 = or i64 %50, %51
  ret i64 %52
}

; Function Attrs: nounwind uwtable
define hidden i64 @minOR(i64 noundef %0, i64 noundef %1, i64 noundef %2, i64 noundef %3) #0 {
  %5 = alloca i64, align 8
  %6 = alloca i64, align 8
  %7 = alloca i64, align 8
  %8 = alloca i64, align 8
  %9 = alloca i64, align 8
  %10 = alloca i64, align 8
  store i64 %0, ptr %5, align 8
  store i64 %1, ptr %6, align 8
  store i64 %2, ptr %7, align 8
  store i64 %3, ptr %8, align 8
  store i64 -9223372036854775808, ptr %9, align 8
  br label %11

11:                                               ; preds = %57, %4
  %12 = load i64, ptr %9, align 8
  %13 = icmp ne i64 %12, 0
  br i1 %13, label %14, label %60

14:                                               ; preds = %11
  %15 = load i64, ptr %5, align 8
  %16 = xor i64 %15, -1
  %17 = load i64, ptr %7, align 8
  %18 = and i64 %16, %17
  %19 = load i64, ptr %9, align 8
  %20 = and i64 %18, %19
  %21 = icmp ne i64 %20, 0
  br i1 %21, label %22, label %35

22:                                               ; preds = %14
  %23 = load i64, ptr %5, align 8
  %24 = load i64, ptr %9, align 8
  %25 = or i64 %23, %24
  %26 = load i64, ptr %9, align 8
  %27 = sub i64 0, %26
  %28 = and i64 %25, %27
  store i64 %28, ptr %10, align 8
  %29 = load i64, ptr %10, align 8
  %30 = load i64, ptr %6, align 8
  %31 = icmp ule i64 %29, %30
  br i1 %31, label %32, label %34

32:                                               ; preds = %22
  %33 = load i64, ptr %10, align 8
  store i64 %33, ptr %5, align 8
  br label %60

34:                                               ; preds = %22
  br label %57

35:                                               ; preds = %14
  %36 = load i64, ptr %5, align 8
  %37 = load i64, ptr %7, align 8
  %38 = xor i64 %37, -1
  %39 = and i64 %36, %38
  %40 = load i64, ptr %9, align 8
  %41 = and i64 %39, %40
  %42 = icmp ne i64 %41, 0
  br i1 %42, label %43, label %56

43:                                               ; preds = %35
  %44 = load i64, ptr %7, align 8
  %45 = load i64, ptr %9, align 8
  %46 = or i64 %44, %45
  %47 = load i64, ptr %9, align 8
  %48 = sub i64 0, %47
  %49 = and i64 %46, %48
  store i64 %49, ptr %10, align 8
  %50 = load i64, ptr %10, align 8
  %51 = load i64, ptr %8, align 8
  %52 = icmp ule i64 %50, %51
  br i1 %52, label %53, label %55

53:                                               ; preds = %43
  %54 = load i64, ptr %10, align 8
  store i64 %54, ptr %7, align 8
  br label %60

55:                                               ; preds = %43
  br label %56

56:                                               ; preds = %55, %35
  br label %57

57:                                               ; preds = %56, %34
  %58 = load i64, ptr %9, align 8
  %59 = lshr i64 %58, 1
  store i64 %59, ptr %9, align 8
  br label %11

60:                                               ; preds = %53, %32, %11
  %61 = load i64, ptr %5, align 8
  %62 = load i64, ptr %7, align 8
  %63 = or i64 %61, %62
  ret i64 %63
}

; Function Attrs: nounwind uwtable
define internal void @zend_ssa_range_or(i64 noundef %0, i64 noundef %1, i64 noundef %2, i64 noundef %3, ptr noundef %4) #0 {
  %6 = alloca i64, align 8
  %7 = alloca i64, align 8
  %8 = alloca i64, align 8
  %9 = alloca i64, align 8
  %10 = alloca ptr, align 8
  %11 = alloca i32, align 4
  store i64 %0, ptr %6, align 8
  store i64 %1, ptr %7, align 8
  store i64 %2, ptr %8, align 8
  store i64 %3, ptr %9, align 8
  store ptr %4, ptr %10, align 8
  %12 = load i64, ptr %6, align 8
  %13 = icmp slt i64 %12, 0
  %14 = select i1 %13, i32 8, i32 0
  %15 = load i64, ptr %7, align 8
  %16 = icmp slt i64 %15, 0
  %17 = select i1 %16, i32 4, i32 0
  %18 = or i32 %14, %17
  %19 = load i64, ptr %8, align 8
  %20 = icmp slt i64 %19, 0
  %21 = select i1 %20, i32 2, i32 0
  %22 = or i32 %18, %21
  %23 = load i64, ptr %9, align 8
  %24 = icmp slt i64 %23, 0
  %25 = select i1 %24, i32 1, i32 0
  %26 = or i32 %22, %25
  store i32 %26, ptr %11, align 4
  %27 = load i32, ptr %11, align 4
  switch i32 %27, label %98 [
    i32 0, label %28
    i32 3, label %28
    i32 12, label %28
    i32 15, label %28
    i32 2, label %43
    i32 8, label %56
    i32 10, label %69
    i32 11, label %86
    i32 14, label %92
  ]

28:                                               ; preds = %5, %5, %5, %5
  %29 = load i64, ptr %6, align 8
  %30 = load i64, ptr %7, align 8
  %31 = load i64, ptr %8, align 8
  %32 = load i64, ptr %9, align 8
  %33 = call i64 @minOR(i64 noundef %29, i64 noundef %30, i64 noundef %31, i64 noundef %32)
  %34 = load ptr, ptr %10, align 8
  %35 = getelementptr inbounds %struct._zend_ssa_range, ptr %34, i32 0, i32 0
  store i64 %33, ptr %35, align 8
  %36 = load i64, ptr %6, align 8
  %37 = load i64, ptr %7, align 8
  %38 = load i64, ptr %8, align 8
  %39 = load i64, ptr %9, align 8
  %40 = call i64 @maxOR(i64 noundef %36, i64 noundef %37, i64 noundef %38, i64 noundef %39)
  %41 = load ptr, ptr %10, align 8
  %42 = getelementptr inbounds %struct._zend_ssa_range, ptr %41, i32 0, i32 1
  store i64 %40, ptr %42, align 8
  br label %98

43:                                               ; preds = %5
  %44 = load i64, ptr %6, align 8
  %45 = load i64, ptr %7, align 8
  %46 = load i64, ptr %8, align 8
  %47 = call i64 @minOR(i64 noundef %44, i64 noundef %45, i64 noundef %46, i64 noundef -1)
  %48 = load ptr, ptr %10, align 8
  %49 = getelementptr inbounds %struct._zend_ssa_range, ptr %48, i32 0, i32 0
  store i64 %47, ptr %49, align 8
  %50 = load i64, ptr %6, align 8
  %51 = load i64, ptr %7, align 8
  %52 = load i64, ptr %9, align 8
  %53 = call i64 @maxOR(i64 noundef %50, i64 noundef %51, i64 noundef 0, i64 noundef %52)
  %54 = load ptr, ptr %10, align 8
  %55 = getelementptr inbounds %struct._zend_ssa_range, ptr %54, i32 0, i32 1
  store i64 %53, ptr %55, align 8
  br label %98

56:                                               ; preds = %5
  %57 = load i64, ptr %6, align 8
  %58 = load i64, ptr %8, align 8
  %59 = load i64, ptr %9, align 8
  %60 = call i64 @minOR(i64 noundef %57, i64 noundef -1, i64 noundef %58, i64 noundef %59)
  %61 = load ptr, ptr %10, align 8
  %62 = getelementptr inbounds %struct._zend_ssa_range, ptr %61, i32 0, i32 0
  store i64 %60, ptr %62, align 8
  %63 = load i64, ptr %7, align 8
  %64 = load i64, ptr %8, align 8
  %65 = load i64, ptr %9, align 8
  %66 = call i64 @maxOR(i64 noundef 0, i64 noundef %63, i64 noundef %64, i64 noundef %65)
  %67 = load ptr, ptr %10, align 8
  %68 = getelementptr inbounds %struct._zend_ssa_range, ptr %67, i32 0, i32 1
  store i64 %66, ptr %68, align 8
  br label %98

69:                                               ; preds = %5
  %70 = load i64, ptr %6, align 8
  %71 = load i64, ptr %8, align 8
  %72 = icmp slt i64 %70, %71
  br i1 %72, label %73, label %75

73:                                               ; preds = %69
  %74 = load i64, ptr %6, align 8
  br label %77

75:                                               ; preds = %69
  %76 = load i64, ptr %8, align 8
  br label %77

77:                                               ; preds = %75, %73
  %78 = phi i64 [ %74, %73 ], [ %76, %75 ]
  %79 = load ptr, ptr %10, align 8
  %80 = getelementptr inbounds %struct._zend_ssa_range, ptr %79, i32 0, i32 0
  store i64 %78, ptr %80, align 8
  %81 = load i64, ptr %7, align 8
  %82 = load i64, ptr %9, align 8
  %83 = call i64 @maxOR(i64 noundef 0, i64 noundef %81, i64 noundef 0, i64 noundef %82)
  %84 = load ptr, ptr %10, align 8
  %85 = getelementptr inbounds %struct._zend_ssa_range, ptr %84, i32 0, i32 1
  store i64 %83, ptr %85, align 8
  br label %98

86:                                               ; preds = %5
  %87 = load i64, ptr %8, align 8
  %88 = load ptr, ptr %10, align 8
  %89 = getelementptr inbounds %struct._zend_ssa_range, ptr %88, i32 0, i32 0
  store i64 %87, ptr %89, align 8
  %90 = load ptr, ptr %10, align 8
  %91 = getelementptr inbounds %struct._zend_ssa_range, ptr %90, i32 0, i32 1
  store i64 -1, ptr %91, align 8
  br label %98

92:                                               ; preds = %5
  %93 = load i64, ptr %6, align 8
  %94 = load ptr, ptr %10, align 8
  %95 = getelementptr inbounds %struct._zend_ssa_range, ptr %94, i32 0, i32 0
  store i64 %93, ptr %95, align 8
  %96 = load ptr, ptr %10, align 8
  %97 = getelementptr inbounds %struct._zend_ssa_range, ptr %96, i32 0, i32 1
  store i64 -1, ptr %97, align 8
  br label %98

98:                                               ; preds = %92, %86, %77, %56, %43, %28, %5
  ret void
}