; Function Attrs: nofree norecurse nosync nounwind memory(argmem: write) uwtable
define internal fastcc void @zend_ssa_range_or(i64 noundef %0, i64 noundef %1, i64 noundef %2, i64 noundef %3, ptr nocapture noundef writeonly %4) unnamed_addr #12 {
  %6 = lshr i64 %0, 60
  %7 = trunc i64 %6 to i32
  %8 = and i32 %7, 8
  %9 = lshr i64 %1, 61
  %10 = trunc i64 %9 to i32
  %11 = and i32 %10, 4
  %12 = or disjoint i32 %11, %8
  %13 = lshr i64 %2, 62
  %14 = trunc i64 %13 to i32
  %15 = and i32 %14, 2
  %16 = or disjoint i32 %12, %15
  %.lobit = lshr i64 %3, 63
  %17 = trunc i64 %.lobit to i32
  %18 = or disjoint i32 %16, %17
  switch i32 %18, label %130 [
    i32 0, label %19
    i32 3, label %19
    i32 12, label %19
    i32 15, label %19
    i32 2, label %52
    i32 8, label %85
    i32 10, label %115
    i32 11, label %127
    i32 14, label %128
  ]

19:                                               ; preds = %5, %5, %5, %5
  %20 = xor i64 %0, -1
  %21 = and i64 %20, %2
  %22 = xor i64 %2, -1
  %23 = and i64 %22, %0
  br label %24

24:                                               ; preds = %36, %19
  %.030.i = phi i64 [ -9223372036854775808, %19 ], [ %37, %36 ]
  %25 = and i64 %21, %.030.i
  %.not26.i = icmp eq i64 %25, 0
  br i1 %.not26.i, label %30, label %26

26:                                               ; preds = %24
  %27 = or i64 %.030.i, %0
  %28 = sub i64 0, %.030.i
  %29 = and i64 %27, %28
  %.not29.i = icmp ugt i64 %29, %1
  br i1 %.not29.i, label %36, label %minOR.exit

30:                                               ; preds = %24
  %31 = and i64 %23, %.030.i
  %.not27.i = icmp eq i64 %31, 0
  br i1 %.not27.i, label %36, label %32

32:                                               ; preds = %30
  %33 = or i64 %.030.i, %2
  %34 = sub i64 0, %.030.i
  %35 = and i64 %33, %34
  %.not28.i = icmp ugt i64 %35, %3
  br i1 %.not28.i, label %36, label %minOR.exit

36:                                               ; preds = %32, %30, %26
  %37 = lshr i64 %.030.i, 1
  %.not.i = icmp ult i64 %.030.i, 2
  br i1 %.not.i, label %minOR.exit, label %24

minOR.exit:                                       ; preds = %26, %32, %36
  %.023.i = phi i64 [ %2, %36 ], [ %2, %26 ], [ %35, %32 ]
  %.022.i = phi i64 [ %0, %36 ], [ %29, %26 ], [ %0, %32 ]
  %38 = or i64 %.022.i, %.023.i
  store i64 %38, ptr %4, align 8
  %39 = and i64 %3, %1
  br label %40

40:                                               ; preds = %49, %minOR.exit
  %.026.i = phi i64 [ -9223372036854775808, %minOR.exit ], [ %50, %49 ]
  %41 = and i64 %39, %.026.i
  %.not23.i = icmp eq i64 %41, 0
  br i1 %.not23.i, label %49, label %42

42:                                               ; preds = %40
  %43 = sub i64 %1, %.026.i
  %44 = add i64 %.026.i, -1
  %45 = or i64 %43, %44
  %.not24.i = icmp ult i64 %45, %0
  br i1 %.not24.i, label %46, label %maxOR.exit

46:                                               ; preds = %42
  %47 = sub i64 %3, %.026.i
  %48 = or i64 %47, %44
  %.not25.i = icmp ult i64 %48, %2
  br i1 %.not25.i, label %49, label %maxOR.exit

49:                                               ; preds = %46, %40
  %50 = lshr i64 %.026.i, 1
  %.not.i44 = icmp ult i64 %.026.i, 2
  br i1 %.not.i44, label %maxOR.exit, label %40

maxOR.exit:                                       ; preds = %42, %46, %49
  %.020.i = phi i64 [ %1, %49 ], [ %45, %42 ], [ %1, %46 ]
  %.019.i = phi i64 [ %3, %49 ], [ %3, %42 ], [ %48, %46 ]
  %51 = or i64 %.019.i, %.020.i
  br label %.sink.split

52:                                               ; preds = %5
  %53 = xor i64 %0, -1
  %54 = and i64 %53, %2
  %55 = xor i64 %2, -1
  %56 = and i64 %55, %0
  br label %57

57:                                               ; preds = %69, %52
  %.030.i45 = phi i64 [ -9223372036854775808, %52 ], [ %70, %69 ]
  %58 = and i64 %54, %.030.i45
  %.not26.i46 = icmp eq i64 %58, 0
  br i1 %.not26.i46, label %63, label %59

59:                                               ; preds = %57
  %60 = or i64 %.030.i45, %0
  %61 = sub i64 0, %.030.i45
  %62 = and i64 %60, %61
  %.not29.i47 = icmp ugt i64 %62, %1
  br i1 %.not29.i47, label %69, label %minOR.exit52

63:                                               ; preds = %57
  %64 = and i64 %56, %.030.i45
  %.not27.i51 = icmp eq i64 %64, 0
  br i1 %.not27.i51, label %69, label %65

65:                                               ; preds = %63
  %66 = or i64 %.030.i45, %2
  %67 = sub i64 0, %.030.i45
  %68 = and i64 %66, %67
  br label %minOR.exit52

69:                                               ; preds = %63, %59
  %70 = lshr i64 %.030.i45, 1
  %.not.i50 = icmp ult i64 %.030.i45, 2
  br i1 %.not.i50, label %minOR.exit52, label %57

minOR.exit52:                                     ; preds = %59, %69, %65
  %.023.i48 = phi i64 [ %68, %65 ], [ %2, %69 ], [ %2, %59 ]
  %.022.i49 = phi i64 [ %0, %65 ], [ %62, %59 ], [ %0, %69 ]
  %71 = or i64 %.022.i49, %.023.i48
  store i64 %71, ptr %4, align 8
  %72 = and i64 %3, %1
  br label %73

73:                                               ; preds = %82, %minOR.exit52
  %.026.i53 = phi i64 [ -9223372036854775808, %minOR.exit52 ], [ %83, %82 ]
  %74 = and i64 %72, %.026.i53
  %.not23.i54 = icmp eq i64 %74, 0
  br i1 %.not23.i54, label %82, label %75

75:                                               ; preds = %73
  %76 = sub i64 %1, %.026.i53
  %77 = add i64 %.026.i53, -1
  %78 = or i64 %76, %77
  %.not24.i55 = icmp ult i64 %78, %0
  br i1 %.not24.i55, label %79, label %maxOR.exit59

79:                                               ; preds = %75
  %80 = sub i64 %3, %.026.i53
  %81 = or i64 %80, %77
  br label %maxOR.exit59

82:                                               ; preds = %73
  %83 = lshr i64 %.026.i53, 1
  %.not.i58 = icmp ult i64 %.026.i53, 2
  br i1 %.not.i58, label %maxOR.exit59, label %73

maxOR.exit59:                                     ; preds = %82, %75, %79
  %.020.i56 = phi i64 [ %78, %75 ], [ %1, %79 ], [ %1, %82 ]
  %.019.i57 = phi i64 [ %3, %75 ], [ %81, %79 ], [ %3, %82 ]
  %84 = or i64 %.019.i57, %.020.i56
  br label %.sink.split

85:                                               ; preds = %5
  %86 = xor i64 %0, -1
  %87 = and i64 %86, %2
  %88 = xor i64 %2, -1
  %89 = and i64 %88, %0
  br label %90

90:                                               ; preds = %102, %85
  %.030.i60 = phi i64 [ -9223372036854775808, %85 ], [ %103, %102 ]
  %91 = and i64 %87, %.030.i60
  %.not26.i61 = icmp eq i64 %91, 0
  br i1 %.not26.i61, label %96, label %92

92:                                               ; preds = %90
  %93 = or i64 %.030.i60, %0
  %94 = sub i64 0, %.030.i60
  %95 = and i64 %93, %94
  br label %minOR.exit67

96:                                               ; preds = %90
  %97 = and i64 %89, %.030.i60
  %.not27.i64 = icmp eq i64 %97, 0
  br i1 %.not27.i64, label %102, label %98

98:                                               ; preds = %96
  %99 = or i64 %.030.i60, %2
  %100 = sub i64 0, %.030.i60
  %101 = and i64 %99, %100
  %.not28.i65 = icmp ugt i64 %101, %3
  br i1 %.not28.i65, label %102, label %minOR.exit67

102:                                              ; preds = %98, %96
  %103 = lshr i64 %.030.i60, 1
  %.not.i66 = icmp ult i64 %.030.i60, 2
  br i1 %.not.i66, label %minOR.exit67, label %90

minOR.exit67:                                     ; preds = %98, %102, %92
  %.023.i62 = phi i64 [ %2, %92 ], [ %101, %98 ], [ %2, %102 ]
  %.022.i63 = phi i64 [ %95, %92 ], [ %0, %102 ], [ %0, %98 ]
  %104 = or i64 %.022.i63, %.023.i62
  store i64 %104, ptr %4, align 8
  %105 = and i64 %3, %1
  br label %106

106:                                              ; preds = %112, %minOR.exit67
  %.026.i68 = phi i64 [ -9223372036854775808, %minOR.exit67 ], [ %113, %112 ]
  %107 = and i64 %105, %.026.i68
  %.not23.i69 = icmp eq i64 %107, 0
  br i1 %.not23.i69, label %112, label %108

108:                                              ; preds = %106
  %109 = sub i64 %1, %.026.i68
  %110 = add i64 %.026.i68, -1
  %111 = or i64 %109, %110
  br label %maxOR.exit73

112:                                              ; preds = %106
  %113 = lshr i64 %.026.i68, 1
  %.not.i72 = icmp ult i64 %.026.i68, 2
  br i1 %.not.i72, label %maxOR.exit73, label %106

maxOR.exit73:                                     ; preds = %112, %108
  %.020.i70 = phi i64 [ %111, %108 ], [ %1, %112 ]
  %114 = or i64 %.020.i70, %3
  br label %.sink.split

115:                                              ; preds = %5
  %116 = tail call i64 @llvm.smin.i64(i64 %0, i64 %2)
  store i64 %116, ptr %4, align 8
  %117 = and i64 %3, %1
  br label %118

118:                                              ; preds = %124, %115
  %.026.i74 = phi i64 [ -9223372036854775808, %115 ], [ %125, %124 ]
  %119 = and i64 %117, %.026.i74
  %.not23.i75 = icmp eq i64 %119, 0
  br i1 %.not23.i75, label %124, label %120

120:                                              ; preds = %118
  %121 = sub i64 %1, %.026.i74
  %122 = add i64 %.026.i74, -1
  %123 = or i64 %121, %122
  br label %maxOR.exit79

124:                                              ; preds = %118
  %125 = lshr i64 %.026.i74, 1
  %.not.i78 = icmp ult i64 %.026.i74, 2
  br i1 %.not.i78, label %maxOR.exit79, label %118

maxOR.exit79:                                     ; preds = %124, %120
  %.020.i76 = phi i64 [ %123, %120 ], [ %1, %124 ]
  %126 = or i64 %.020.i76, %3
  br label %.sink.split

127:                                              ; preds = %5
  store i64 %2, ptr %4, align 8
  br label %.sink.split

128:                                              ; preds = %5
  store i64 %0, ptr %4, align 8
  br label %.sink.split

.sink.split:                                      ; preds = %maxOR.exit, %maxOR.exit59, %maxOR.exit73, %maxOR.exit79, %127, %128
  %.sink = phi i64 [ -1, %128 ], [ -1, %127 ], [ %126, %maxOR.exit79 ], [ %114, %maxOR.exit73 ], [ %84, %maxOR.exit59 ], [ %51, %maxOR.exit ]
  %129 = getelementptr inbounds i8, ptr %4, i64 8
  store i64 %.sink, ptr %129, align 8
  br label %130

130:                                              ; preds = %.sink.split, %5
  ret void
}